; Function Attrs: mustprogress uwtable
define hidden noundef zeroext i1 @_ZN10macro_util12is_poly_hintEP4exprP3appS1_(ptr noundef nonnull readonly align 8 captures(none) dereferenceable(320) %0, ptr noundef %1, ptr noundef captures(address) %2, ptr noundef readnone captures(address) %3) local_unnamed_addr #3 align 2 personality ptr @__gxx_personality_v0 {
  %5 = alloca ptr, align 8
  %6 = alloca %class.ptr_buffer.56, align 8
  store ptr %1, ptr %5, align 8, !tbaa !73
  call void @llvm.lifetime.start.p0(i64 144, ptr nonnull %6) #22
  %7 = getelementptr inbounds nuw i8, ptr %6, i64 16
  store ptr %7, ptr %6, align 8, !tbaa !208
  %8 = getelementptr inbounds nuw i8, ptr %6, i64 8
  store i32 0, ptr %8, align 8, !tbaa !204
  %9 = getelementptr inbounds nuw i8, ptr %6, i64 12
  store i32 16, ptr %9, align 4, !tbaa !207
  %10 = invoke noundef zeroext i1 @_Z12is_hint_headP4exprR10ptr_bufferI3varLj16EE(ptr noundef %2, ptr noundef nonnull align 8 dereferenceable(144) %6)
          to label %11 unwind label %12

11:                                               ; preds = %4
  br i1 %10, label %14, label %.critedge32

12:                                               ; preds = %4
  %13 = landingpad { ptr, i32 }
          cleanup
  br label %55

14:                                               ; preds = %11
  %15 = getelementptr inbounds nuw i8, ptr %2, i64 16
  %16 = load ptr, ptr %15, align 8, !tbaa !50
  %17 = getelementptr inbounds nuw i8, ptr %1, i64 4
  %18 = load i32, ptr %17, align 4
  %19 = and i32 %18, 65535
  %20 = icmp eq i32 %19, 0
  br i1 %20, label %21, label %.lr.ph.preheader

21:                                               ; preds = %14
  %22 = getelementptr inbounds nuw i8, ptr %1, i64 16
  %23 = load ptr, ptr %22, align 8, !tbaa !50
  %24 = getelementptr inbounds nuw i8, ptr %23, i64 24
  %25 = load ptr, ptr %24, align 8, !tbaa !55
  %.not.i.i.i.i.i = icmp eq ptr %25, null
  br i1 %.not.i.i.i.i.i, label %.lr.ph.preheader, label %_ZNK17arith_recognizers6is_addEPK4expr.exit.i

_ZNK17arith_recognizers6is_addEPK4expr.exit.i:    ; preds = %21
  %26 = load i32, ptr %25, align 8, !tbaa !60
  %27 = icmp eq i32 %26, 5
  %28 = getelementptr inbounds nuw i8, ptr %25, i64 4
  %29 = load i32, ptr %28, align 4
  %30 = icmp eq i32 %29, 6
  %31 = select i1 %27, i1 %30, i1 false
  br i1 %31, label %_ZNK10macro_util6is_addEP4expr.exit.thread, label %_ZNK10macro_util6is_addEP4expr.exit

_ZNK10macro_util6is_addEP4expr.exit:              ; preds = %_ZNK17arith_recognizers6is_addEPK4expr.exit.i
  %.in.i = getelementptr inbounds nuw i8, ptr %0, i64 8
  %32 = load i32, ptr %.in.i, align 8, !tbaa !64
  %33 = icmp eq i32 %26, %32
  %34 = icmp eq i32 %29, 4
  %35 = select i1 %33, i1 %34, i1 false
  br i1 %35, label %_ZNK10macro_util6is_addEP4expr.exit.thread, label %.lr.ph.preheader

_ZNK10macro_util6is_addEP4expr.exit.thread:       ; preds = %_ZNK10macro_util6is_addEP4expr.exit, %_ZNK17arith_recognizers6is_addEPK4expr.exit.i
  %36 = getelementptr inbounds nuw i8, ptr %1, i64 24
  %37 = load i32, ptr %36, align 8, !tbaa !79
  %38 = getelementptr inbounds nuw i8, ptr %1, i64 32
  %.not30.not34.not = icmp eq i32 %37, 0
  br i1 %.not30.not34.not, label %.critedge32, label %.lr.ph.preheader

.lr.ph.preheader:                                 ; preds = %21, %14, %_ZNK10macro_util6is_addEP4expr.exit, %_ZNK10macro_util6is_addEP4expr.exit.thread
  %.01945 = phi ptr [ %38, %_ZNK10macro_util6is_addEP4expr.exit.thread ], [ %5, %_ZNK10macro_util6is_addEP4expr.exit ], [ %5, %14 ], [ %5, %21 ]
  %.02044 = phi i32 [ %37, %_ZNK10macro_util6is_addEP4expr.exit.thread ], [ 1, %_ZNK10macro_util6is_addEP4expr.exit ], [ 1, %14 ], [ 1, %21 ]
  %wide.trip.count = zext i32 %.02044 to i64
  br label %.lr.ph

.lr.ph:                                           ; preds = %.lr.ph.preheader, %.critedge
  %indvars.iv = phi i64 [ 0, %.lr.ph.preheader ], [ %indvars.iv.next, %.critedge ]
  %39 = getelementptr inbounds nuw ptr, ptr %.01945, i64 %indvars.iv
  %40 = load ptr, ptr %39, align 8, !tbaa !73
  %.not = icmp eq ptr %40, %3
  br i1 %.not, label %.critedge, label %41

41:                                               ; preds = %.lr.ph
  %42 = invoke noundef zeroext i1 @_Z6occursP9func_declP4expr(ptr noundef %16, ptr noundef %40)
          to label %43 unwind label %47

43:                                               ; preds = %41
  br i1 %42, label %.critedge32, label %44

44:                                               ; preds = %43
  %45 = invoke noundef zeroext i1 @_Z17vars_of_is_subsetP4exprRK10ptr_bufferI3varLj16EE(ptr noundef %40, ptr noundef nonnull align 8 dereferenceable(144) %6)
          to label %46 unwind label %47

46:                                               ; preds = %44
  br i1 %45, label %.critedge, label %.critedge32

47:                                               ; preds = %44, %41
  %48 = landingpad { ptr, i32 }
          cleanup
  br label %55

.critedge:                                        ; preds = %46, %.lr.ph
  %indvars.iv.next = add nuw nsw i64 %indvars.iv, 1
  %exitcond.not = icmp eq i64 %indvars.iv.next, %wide.trip.count
  br i1 %exitcond.not, label %.critedge32, label %.lr.ph, !llvm.loop !215

.critedge32:                                      ; preds = %46, %43, %.critedge, %_ZNK10macro_util6is_addEP4expr.exit.thread, %11
  %.0 = phi i1 [ false, %11 ], [ true, %_ZNK10macro_util6is_addEP4expr.exit.thread ], [ false, %46 ], [ false, %43 ], [ true, %.critedge ]
  %49 = load ptr, ptr %6, align 8, !tbaa !208
  %.not.i.i.i = icmp eq ptr %49, %7
  %50 = icmp eq ptr %49, null
  %or.cond.i.i.i = or i1 %.not.i.i.i, %50
  br i1 %or.cond.i.i.i, label %_ZN6bufferIP3varLb0ELj16EED2Ev.exit, label %51

51:                                               ; preds = %.critedge32
  invoke void @_ZN6memory10deallocateEPv(ptr noundef nonnull %49)
          to label %_ZN6bufferIP3varLb0ELj16EED2Ev.exit unwind label %52

52:                                               ; preds = %51
  %53 = landingpad { ptr, i32 }
          catch ptr null
  %54 = extractvalue { ptr, i32 } %53, 0
  call void @__clang_call_terminate(ptr %54) #23
  unreachable

_ZN6bufferIP3varLb0ELj16EED2Ev.exit:              ; preds = %.critedge32, %51
  call void @llvm.lifetime.end.p0(i64 144, ptr nonnull %6) #22
  ret i1 %.0

55:                                               ; preds = %47, %12
  %.pn.pn = phi { ptr, i32 } [ %13, %12 ], [ %48, %47 ]
  call void @_ZN6bufferIP3varLb0ELj16EED2Ev(ptr noundef nonnull align 8 dereferenceable(144) %6) #22
  call void @llvm.lifetime.end.p0(i64 144, ptr nonnull %6) #22
  resume { ptr, i32 } %.pn.pn
}